; ModuleID = '21/119.c'
source_filename = "21/119.c"
target datalayout = "e-m:e-p270:32:32-p271:32:32-p272:64:64-i64:64-f80:128-n8:16:32:64-S128"
target triple = "x86_64-pc-linux-gnu"

@.str = private unnamed_addr constant [3 x i8] c"%d\00", align 1
@.str.1 = private unnamed_addr constant [6 x i8] c"%d,%d\00", align 1

; Function Attrs: noinline nounwind uwtable
define dso_local void @main() #0 {
  %1 = alloca i32, align 4
  %2 = alloca i32, align 4
  %3 = alloca i32, align 4
  %4 = alloca i32, align 4
  %5 = alloca i32, align 4
  %6 = alloca [300 x i32], align 16
  %7 = alloca float, align 4
  %8 = alloca float, align 4
  %9 = alloca float, align 4
  store i32 0, i32* %4, align 4
  %10 = call i32 (i8*, ...) @__isoc99_scanf(i8* getelementptr inbounds ([3 x i8], [3 x i8]* @.str, i64 0, i64 0), i32* %3)
  store i32 0, i32* %1, align 4
  br label %11

11:                                               ; preds = %26, %0
  %12 = load i32, i32* %1, align 4
  %13 = load i32, i32* %3, align 4
  %14 = icmp slt i32 %12, %13
  br i1 %14, label %15, label %29

15:                                               ; preds = %11
  %16 = load i32, i32* %1, align 4
  %17 = sext i32 %16 to i64
  %18 = getelementptr inbounds [300 x i32], [300 x i32]* %6, i64 0, i64 %17
  %19 = call i32 (i8*, ...) @__isoc99_scanf(i8* getelementptr inbounds ([3 x i8], [3 x i8]* @.str, i64 0, i64 0), i32* %18)
  %20 = load i32, i32* %1, align 4
  %21 = sext i32 %20 to i64
  %22 = getelementptr inbounds [300 x i32], [300 x i32]* %6, i64 0, i64 %21
  %23 = load i32, i32* %22, align 4
  %24 = load i32, i32* %4, align 4
  %25 = add nsw i32 %24, %23
  store i32 %25, i32* %4, align 4
  br label %26

26:                                               ; preds = %15
  %27 = load i32, i32* %1, align 4
  %28 = add nsw i32 %27, 1
  store i32 %28, i32* %1, align 4
  br label %11

29:                                               ; preds = %11
  %30 = load i32, i32* %4, align 4
  %31 = sitofp i32 %30 to float
  %32 = load i32, i32* %3, align 4
  %33 = sitofp i32 %32 to float
  %34 = fdiv float %31, %33
  store float %34, float* %9, align 4
  store i32 0, i32* %1, align 4
  br label %35

35:                                               ; preds = %81, %29
  %36 = load i32, i32* %1, align 4
  %37 = load i32, i32* %3, align 4
  %38 = icmp slt i32 %36, %37
  br i1 %38, label %39, label %84

39:                                               ; preds = %35
  store i32 0, i32* %2, align 4
  br label %40

40:                                               ; preds = %77, %39
  %41 = load i32, i32* %2, align 4
  %42 = load i32, i32* %3, align 4
  %43 = load i32, i32* %1, align 4
  %44 = sub nsw i32 %42, %43
  %45 = sub nsw i32 %44, 1
  %46 = icmp slt i32 %41, %45
  br i1 %46, label %47, label %80

47:                                               ; preds = %40
  %48 = load i32, i32* %1, align 4
  %49 = sext i32 %48 to i64
  %50 = getelementptr inbounds [300 x i32], [300 x i32]* %6, i64 0, i64 %49
  %51 = load i32, i32* %50, align 4
  %52 = load i32, i32* %1, align 4
  %53 = add nsw i32 %52, 1
  %54 = sext i32 %53 to i64
  %55 = getelementptr inbounds [300 x i32], [300 x i32]* %6, i64 0, i64 %54
  %56 = load i32, i32* %55, align 4
  %57 = icmp sgt i32 %51, %56
  br i1 %57, label %58, label %76

58:                                               ; preds = %47
  %59 = load i32, i32* %1, align 4
  %60 = sext i32 %59 to i64
  %61 = getelementptr inbounds [300 x i32], [300 x i32]* %6, i64 0, i64 %60
  %62 = load i32, i32* %61, align 4
  store i32 %62, i32* %5, align 4
  %63 = load i32, i32* %1, align 4
  %64 = add nsw i32 %63, 1
  %65 = sext i32 %64 to i64
  %66 = getelementptr inbounds [300 x i32], [300 x i32]* %6, i64 0, i64 %65
  %67 = load i32, i32* %66, align 4
  %68 = load i32, i32* %1, align 4
  %69 = sext i32 %68 to i64
  %70 = getelementptr inbounds [300 x i32], [300 x i32]* %6, i64 0, i64 %69
  store i32 %67, i32* %70, align 4
  %71 = load i32, i32* %5, align 4
  %72 = load i32, i32* %1, align 4
  %73 = add nsw i32 %72, 1
  %74 = sext i32 %73 to i64
  %75 = getelementptr inbounds [300 x i32], [300 x i32]* %6, i64 0, i64 %74
  store i32 %71, i32* %75, align 4
  br label %76

76:                                               ; preds = %58, %47
  br label %77

77:                                               ; preds = %76
  %78 = load i32, i32* %2, align 4
  %79 = add nsw i32 %78, 1
  store i32 %79, i32* %2, align 4
  br label %40

80:                                               ; preds = %40
  br label %81

81:                                               ; preds = %80
  %82 = load i32, i32* %1, align 4
  %83 = add nsw i32 %82, 1
  store i32 %83, i32* %1, align 4
  br label %35

84:                                               ; preds = %35
  %85 = load float, float* %9, align 4
  %86 = getelementptr inbounds [300 x i32], [300 x i32]* %6, i64 0, i64 0
  %87 = load i32, i32* %86, align 16
  %88 = sitofp i32 %87 to float
  %89 = fsub float %85, %88
  %90 = fpext float %89 to double
  %91 = call double @llvm.fabs.f64(double %90)
  %92 = fptrunc double %91 to float
  store float %92, float* %7, align 4
  %93 = load float, float* %9, align 4
  %94 = load i32, i32* %3, align 4
  %95 = sub nsw i32 %94, 1
  %96 = sext i32 %95 to i64
  %97 = getelementptr inbounds [300 x i32], [300 x i32]* %6, i64 0, i64 %96
  %98 = load i32, i32* %97, align 4
  %99 = sitofp i32 %98 to float
  %100 = fsub float %93, %99
  %101 = fpext float %100 to double
  %102 = call double @llvm.fabs.f64(double %101)
  %103 = fptrunc double %102 to float
  store float %103, float* %8, align 4
  %104 = load float, float* %7, align 4
  %105 = load float, float* %8, align 4
  %106 = fcmp oeq float %104, %105
  br i1 %106, label %107, label %116

107:                                              ; preds = %84
  %108 = getelementptr inbounds [300 x i32], [300 x i32]* %6, i64 0, i64 0
  %109 = load i32, i32* %108, align 16
  %110 = load i32, i32* %3, align 4
  %111 = sub nsw i32 %110, 1
  %112 = sext i32 %111 to i64
  %113 = getelementptr inbounds [300 x i32], [300 x i32]* %6, i64 0, i64 %112
  %114 = load i32, i32* %113, align 4
  %115 = call i32 (i8*, ...) @printf(i8* getelementptr inbounds ([6 x i8], [6 x i8]* @.str.1, i64 0, i64 0), i32 %109, i32 %114)
  br label %132

116:                                              ; preds = %84
  %117 = load float, float* %7, align 4
  %118 = load float, float* %8, align 4
  %119 = fcmp ogt float %117, %118
  br i1 %119, label %120, label %124

120:                                              ; preds = %116
  %121 = getelementptr inbounds [300 x i32], [300 x i32]* %6, i64 0, i64 0
  %122 = load i32, i32* %121, align 16
  %123 = call i32 (i8*, ...) @printf(i8* getelementptr inbounds ([3 x i8], [3 x i8]* @.str, i64 0, i64 0), i32 %122)
  br label %131

124:                                              ; preds = %116
  %125 = load i32, i32* %3, align 4
  %126 = sub nsw i32 %125, 1
  %127 = sext i32 %126 to i64
  %128 = getelementptr inbounds [300 x i32], [300 x i32]* %6, i64 0, i64 %127
  %129 = load i32, i32* %128, align 4
  %130 = call i32 (i8*, ...) @printf(i8* getelementptr inbounds ([3 x i8], [3 x i8]* @.str, i64 0, i64 0), i32 %129)
  br label %131

131:                                              ; preds = %124, %120
  br label %132

132:                                              ; preds = %131, %107
  ret void
}

declare dso_local i32 @__isoc99_scanf(i8*, ...) #1

; Function Attrs: nounwind readnone speculatable willreturn
declare double @llvm.fabs.f64(double) #2

declare dso_local i32 @printf(i8*, ...) #1


!llvm.module.flags = !{!0}
!llvm.ident = !{!1}

!0 = !{i32 1, !"wchar_size", i32 4}
!1 = !{!"clang version 10.0.0-4ubuntu1 "}
